(lp0
(dp1
S'current_sent'
p2
(dp3
S'neg'
p4
F0.0
sS'neu'
p5
F0.0
sS'pos'
p6
F0.5
sS'compound'
p7
F0.2202
ssS'last_sent'
p8
g3
sS'delta_sent'
p9
(dp10
g4
F0.0
sg5
F0.0
sg6
F0.5
sg7
F0.2202
ssS'sum_delta'
p11
g3
sS'average_sent'
p12
g3
sS'num_data'
p13
I2
sS'average_delta'
p14
g3
sS'sum_sent'
p15
g3
sa(dp16
S'test'
p17
g1
sa.