(lp0
(dp1
S'average_delta'
p2
(dp3
S'neg'
p4
I0
sS'neu'
p5
I0
sS'pos'
p6
I0
sS'compound'
p7
I0
ssS'sum_delta'
p8
(dp9
g4
F0.0
sg5
F0.0
sg6
F1.0
sg7
F0.4403999999999998
ssS'num_data'
p10
I50
sS'average_sent'
p11
(dp12
S'neg'
p13
F0.21608
sS'neu'
p14
F0.08468
sS'pos'
p15
F0.69926
sS'compound'
p16
F0.2002020000000001
ssS'current_sent'
p17
(dp18
g13
I0
sg14
I0
sg15
I0
sg16
I0
ssS'last_sent'
p19
(dp20
g13
F0.0
sg14
F0.0
sg15
F1.0
sg16
F0.4404
ssS'delta_sent'
p21
(dp22
g13
F0.0
sg14
F0.0
sg15
F0.0
sg16
F0.0
ssS'sum_sent'
p23
(dp24
g4
F10.804
sg5
F4.234
sg6
F34.963
sg7
F10.010100000000005
ssa(dp25
S'test'
p26
(dp27
g2
(dp28
g4
I0
sg5
I0
sg6
I0
sg7
I0
ssg8
(dp29
g4
F0.0
sg5
F0.0
sg6
F1.0
sg7
F0.4404
ssg10
I46
sg11
(dp30
g13
F0.19943478260869565
sg14
F0.07482608695652174
sg15
F0.7257608695652175
sg16
F0.22221086956521754
ssg17
(dp31
g13
I0
sg14
I0
sg15
I0
sg16
I0
ssg19
g20
sg21
(dp32
g13
F0.0
sg14
F0.0
sg15
F0.0
sg16
F0.0
ssg23
(dp33
g4
F9.174
sg5
F3.4419999999999997
sg6
F33.385000000000005
sg7
F10.221700000000007
sssS'test '
p34
(dp35
S'average_delta'
p36
(dp37
S'neg'
p38
I0
sS'neu'
p39
I0
sS'pos'
p40
I0
sS'compound'
p41
I0
ssS'sum_delta'
p42
(dp43
g38
F0.0
sg39
F0.152
sg40
F0.848
sg41
F0.6808
ssS'num_data'
p44
I1
sS'average_sent'
p45
(dp46
g38
F0.0
sg39
F0.152
sg40
F0.848
sg41
F0.6808
ssS'current_sent'
p47
(dp48
g38
I0
sg39
I0
sg40
I0
sg41
I0
ssS'last_sent'
p49
(dp50
g38
F0.0
sg39
F0.152
sg40
F0.848
sg41
F0.6808
ssS'delta_sent'
p51
(dp52
g38
F0.0
sg39
F0.152
sg40
F0.848
sg41
F0.6808
ssS'sum_sent'
p53
(dp54
g38
F0.0
sg39
F0.152
sg40
F0.848
sg41
F0.6808
sssS'terrible'
p55
(dp56
S'average_delta'
p57
(dp58
S'neg'
p59
I0
sS'neu'
p60
I0
sS'pos'
p61
I0
sS'compound'
p62
I0
ssS'sum_delta'
p63
(dp64
g59
F1.0
sg60
F0.0
sg61
F0.0
sg62
F-0.4767
ssS'num_data'
p65
I1
sS'average_sent'
p66
(dp67
g59
F1.0
sg60
F0.0
sg61
F0.0
sg62
F-0.4767
ssS'current_sent'
p68
(dp69
g59
I0
sg60
I0
sg61
I0
sg62
I0
ssS'last_sent'
p70
(dp71
g59
F1.0
sg60
F0.0
sg61
F0.0
sg62
F-0.4767
ssS'delta_sent'
p72
(dp73
g59
F1.0
sg60
F0.0
sg61
F0.0
sg62
F-0.4767
ssS'sum_sent'
p74
(dp75
g59
F1.0
sg60
F0.0
sg61
F0.0
sg62
F-0.4767
sssS'ttest'
p76
(dp77
S'average_delta'
p78
(dp79
S'neg'
p80
I0
sS'neu'
p81
I0
sS'pos'
p82
I0
sS'compound'
p83
I0
ssS'sum_delta'
p84
(dp85
g80
F0.63
sg81
F0.37
sg82
F0.0
sg83
F-0.8176000000000001
ssS'num_data'
p86
I2
sS'average_sent'
p87
(dp88
S'neg'
p89
F0.315
sS'neu'
p90
F0.32
sS'pos'
p91
F0.365
sS'compound'
p92
F-0.20785
ssS'current_sent'
p93
(dp94
g89
I0
sg90
I0
sg91
I0
sg92
I0
ssS'last_sent'
p95
(dp96
g89
F0.63
sg90
F0.37
sg91
F0.0
sg92
F-0.8176
ssS'delta_sent'
p97
(dp98
g89
F0.63
sg90
F0.09999999999999998
sg91
F-0.73
sg92
F-1.2195
ssS'sum_sent'
p99
(dp100
g80
F0.63
sg81
F0.64
sg82
F0.73
sg83
F-0.4157
sssa.