(lp0
(dp1
S'average_delta'
p2
(dp3
S'neg'
p4
I0
sS'neu'
p5
I0
sS'pos'
p6
I0
sS'compound'
p7
I0
ssS'num_data'
p8
I1
sS'sum_delta'
p9
(dp10
g4
F0.0
sg5
F0.0
sg6
F1.0
sg7
F0.4404
ssS'average_sent'
p11
(dp12
g4
F0.0
sg5
F0.0
sg6
F1.0
sg7
F0.4404
ssS'current_sent'
p13
(dp14
g4
I0
sg5
I0
sg6
I0
sg7
I0
ssS'last_sent'
p15
(dp16
g4
F0.0
sg5
F0.0
sg6
F1.0
sg7
F0.4404
ssS'delta_sent'
p17
(dp18
g4
F0.0
sg5
F0.0
sg6
F1.0
sg7
F0.4404
ssS'sum_sent'
p19
(dp20
g4
F0.0
sg5
F0.0
sg6
F1.0
sg7
F0.4404
ssa(dp21
S'test'
p22
(dp23
g2
(dp24
g4
I0
sg5
I0
sg6
I0
sg7
I0
ssg8
I1
sg9
(dp25
g4
F0.0
sg5
F0.0
sg6
F1.0
sg7
F0.4404
ssg11
(dp26
g4
F0.0
sg5
F0.0
sg6
F1.0
sg7
F0.4404
ssg13
(dp27
g4
I0
sg5
I0
sg6
I0
sg7
I0
ssg15
g16
sg17
(dp28
g4
F0.0
sg5
F0.0
sg6
F1.0
sg7
F0.4404
ssg19
(dp29
g4
F0.0
sg5
F0.0
sg6
F1.0
sg7
F0.4404
sssa.