(lp0
(dp1
S'average_delta'
p2
(dp3
S'neg'
p4
I0
sS'neu'
p5
I0
sS'pos'
p6
I0
sS'compound'
p7
I0
ssS'sum_delta'
p8
(dp9
g4
F0.567
sg5
F0.433
sg6
F0.0
sg7
F-0.38649999999999995
ssS'num_data'
p10
I20
sS'average_sent'
p11
(dp12
S'neg'
p13
F0.07835
sS'neu'
p14
F0.02165
sS'pos'
p15
F0.9
sS'compound'
p16
F0.3532000000000001
ssS'current_sent'
p17
(dp18
g13
I0
sg14
I0
sg15
I0
sg16
I0
ssS'last_sent'
p19
(dp20
g13
F0.567
sg14
F0.433
sg15
F0.0
sg16
F-0.3865
ssS'delta_sent'
p21
(dp22
g13
F0.567
sg14
F0.433
sg15
F-1.0
sg16
F-0.8269
ssS'sum_sent'
p23
(dp24
g4
F1.567
sg5
F0.433
sg6
F18.0
sg7
F7.064000000000003
ssa(dp25
S'test'
p26
(dp27
g2
(dp28
g4
I0
sg5
I0
sg6
I0
sg7
I0
ssg8
(dp29
g4
F0.567
sg5
F0.433
sg6
F0.0
sg7
F-0.38649999999999995
ssg10
I20
sg11
(dp30
g13
F0.07835
sg14
F0.02165
sg15
F0.9
sg16
F0.3532000000000001
ssg17
(dp31
g13
I0
sg14
I0
sg15
I0
sg16
I0
ssg19
g20
sg21
(dp32
g13
F0.567
sg14
F0.433
sg15
F-1.0
sg16
F-0.8269
ssg23
(dp33
g4
F1.567
sg5
F0.433
sg6
F18.0
sg7
F7.064000000000003
sssa.