(lp0
(dp1
S'average_delta'
p2
(dp3
S'neg'
p4
I0
sS'neu'
p5
I0
sS'pos'
p6
I0
sS'compound'
p7
I0
ssS'num_data'
p8
I3
sS'sum_delta'
p9
(dp10
g4
F0.0
sg5
F0.0
sg6
F1.0
sg7
F0.4404
ssS'average_sent'
p11
(dp12
S'neg'
p13
F0.0
sS'neu'
p14
F0.0
sS'pos'
p15
F1.0
sS'compound'
p16
F0.44040000000000007
ssS'current_sent'
p17
(dp18
g13
I0
sg14
I0
sg15
I0
sg16
I0
ssS'last_sent'
p19
(dp20
g13
F0.0
sg14
F0.0
sg15
F1.0
sg16
F0.4404
ssS'delta_sent'
p21
(dp22
g13
F0.0
sg14
F0.0
sg15
F0.0
sg16
F0.0
ssS'sum_sent'
p23
(dp24
g4
F0.0
sg5
F0.0
sg6
F3.0
sg7
F1.3212000000000002
ssa(dp25
S'test'
p26
(dp27
g2
(dp28
g4
I0
sg5
I0
sg6
I0
sg7
I0
ssg8
I3
sg9
(dp29
g4
F0.0
sg5
F0.0
sg6
F1.0
sg7
F0.4404
ssg11
(dp30
g13
F0.0
sg14
F0.0
sg15
F1.0
sg16
F0.44040000000000007
ssg17
(dp31
g13
I0
sg14
I0
sg15
I0
sg16
I0
ssg19
g20
sg21
(dp32
g13
F0.0
sg14
F0.0
sg15
F0.0
sg16
F0.0
ssg23
(dp33
g4
F0.0
sg5
F0.0
sg6
F3.0
sg7
F1.3212000000000002
sssa.