(lp0
(dp1
S'num_data'
p2
I6
sS'average_delta'
p3
(dp4
S'neg'
p5
F0.16799999999999998
sS'neu'
p6
I0
sS'pos'
p7
F0.00041975308641975317
sS'compound'
p8
F-0.07990074074074074
ssS'average_sent'
p9
g4
sS'current_sent'
p10
(dp11
S'neg'
p12
I0
sS'neu'
p13
I0
sS'pos'
p14
I0
sS'compound'
p15
I0
ssS'last_sent'
p16
g11
sS'delta_sent'
p17
(dp18
g12
F1.0
sg13
F0.0
sg14
F0.0
sg15
F-0.4767
ssa(dp19
S'test'
p20
g1
sa.