(lp0
(dp1
S'num_data'
p2
I2
sS'average_delta'
p3
(dp4
S'neg'
p5
F0.0
sS'neu'
p6
I0
sS'pos'
p7
F1.0
sS'compound'
p8
F0.6249
ssS'average_sent'
p9
g4
sS'current_sent'
p10
g4
sS'last_sent'
p11
g4
sS'delta_sent'
p12
(dp13
g5
F0.0
sg6
F0.0
sg7
F0.0
sg8
F0.0
ssa(dp14
S'test'
p15
g1
sa.